target datalayout = "e-m:e-p270:32:32-p271:32:32-p272:64:64-i64:64-i128:128-f80:128-n8:16:32:64-S128"
target triple = "x86_64-pc-linux-gnu"

%"struct.glslang::TSourceLoc" = type { ptr, i32, i32, i32 }
%"class.glslang::TPpToken" = type <{ %"struct.glslang::TSourceLoc", i8, i8, [6 x i8], %union.anon.79, [1025 x i8], [7 x i8] }>
%union.anon.79 = type { double }
%"class.glslang::TPpContext::tInput" = type { ptr, i8, ptr }

; Function Attrs: mustprogress nounwind uwtable
define noundef i32 @_ZN7glslang10TPpContext10tZeroInput4scanEPNS_8TPpTokenE(ptr noundef nonnull align 8 dereferenceable(24) %0, ptr noundef %1) unnamed_addr #0 align 2 {
  %3 = alloca i32, align 4
  %4 = alloca ptr, align 8
  %5 = alloca ptr, align 8
  store ptr %0, ptr %4, align 8
  store ptr %1, ptr %5, align 8
  %6 = load ptr, ptr %4, align 8
  %7 = getelementptr inbounds %"class.glslang::TPpContext::tInput", ptr %6, i32 0, i32 1
  %8 = load i8, ptr %7, align 8
  %9 = trunc i8 %8 to i1
  br i1 %9, label %10, label %11

10:                                               ; preds = %2
  store i32 -1, ptr %3, align 4
  br label %23

11:                                               ; preds = %2
  %12 = load ptr, ptr %5, align 8
  %13 = getelementptr inbounds %"class.glslang::TPpToken", ptr %12, i32 0, i32 5
  %14 = getelementptr inbounds [1025 x i8], ptr %13, i64 0, i64 0
  store i8 48, ptr %14, align 8
  %15 = load ptr, ptr %5, align 8
  %16 = getelementptr inbounds %"class.glslang::TPpToken", ptr %15, i32 0, i32 5
  %17 = getelementptr inbounds [1025 x i8], ptr %16, i64 0, i64 1
  store i8 0, ptr %17, align 1
  %18 = load ptr, ptr %5, align 8
  %19 = getelementptr inbounds %"class.glslang::TPpToken", ptr %18, i32 0, i32 4
  store i32 0, ptr %19, align 8
  %20 = load ptr, ptr %5, align 8
  %21 = getelementptr inbounds %"class.glslang::TPpToken", ptr %20, i32 0, i32 1
  store i8 0, ptr %21, align 8
  %22 = getelementptr inbounds %"class.glslang::TPpContext::tInput", ptr %6, i32 0, i32 1
  store i8 1, ptr %22, align 8
  store i32 152, ptr %3, align 4
  br label %23

23:                                               ; preds = %11, %10
  %24 = load i32, ptr %3, align 4
  ret i32 %24
}