; Function Attrs: mustprogress nofree norecurse nosync nounwind willreturn memory(argmem: readwrite) uwtable
define noundef range(i32 -1, 153) i32 @_ZN7glslang10TPpContext10tZeroInput4scanEPNS_8TPpTokenE(ptr nocapture noundef nonnull align 8 dereferenceable(24) %0, ptr nocapture noundef writeonly %1) unnamed_addr #10 align 2 {
  %3 = getelementptr inbounds i8, ptr %0, i64 8
  %4 = load i8, ptr %3, align 8
  %5 = trunc i8 %4 to i1
  br i1 %5, label %11, label %6

6:                                                ; preds = %2
  %7 = getelementptr inbounds i8, ptr %1, i64 40
  store i8 48, ptr %7, align 8
  %8 = getelementptr inbounds i8, ptr %1, i64 41
  store i8 0, ptr %8, align 1
  %9 = getelementptr inbounds i8, ptr %1, i64 32
  store i32 0, ptr %9, align 8
  %10 = getelementptr inbounds i8, ptr %1, i64 24
  store i8 0, ptr %10, align 8
  store i8 1, ptr %3, align 8
  br label %11

11:                                               ; preds = %2, %6
  %.0 = phi i32 [ 152, %6 ], [ -1, %2 ]
  ret i32 %.0
}